; Function Attrs: nounwind uwtable
define hidden range(i32 -1, 1) i32 @_PySys_Audit(ptr noundef %0, ptr noundef %1, ptr noundef %2, ...) local_unnamed_addr #0 {
  %4 = alloca [1 x %struct.__va_list_tag], align 16
  call void @llvm.lifetime.start.p0(i64 24, ptr nonnull %4) #15
  call void @llvm.va_start.p0(ptr nonnull %4)
  %5 = call fastcc i32 @sys_audit_tstate(ptr noundef %0, ptr noundef %1, ptr noundef %2, ptr noundef %4)
  call void @llvm.va_end.p0(ptr nonnull %4)
  call void @llvm.lifetime.end.p0(i64 24, ptr nonnull %4) #15
  ret i32 %5
}